target datalayout = "e-m:e-p270:32:32-p271:32:32-p272:64:64-i64:64-i128:128-f80:128-n8:16:32:64-S128"
target triple = "x86_64-pc-linux-gnu"

%struct.ge_p3 = type { [10 x i32], [10 x i32], [10 x i32], [10 x i32] }

; Function Attrs: nounwind uwtable
define internal void @fe_sub(ptr noundef %0, ptr noundef %1, ptr noundef %2) #0 {
  %4 = alloca ptr, align 8
  %5 = alloca ptr, align 8
  %6 = alloca ptr, align 8
  %7 = alloca i32, align 4
  store ptr %0, ptr %4, align 8, !tbaa !26
  store ptr %1, ptr %5, align 8, !tbaa !26
  store ptr %2, ptr %6, align 8, !tbaa !26
  call void @llvm.lifetime.start.p0(i64 4, ptr %7) #6
  store i32 0, ptr %7, align 4, !tbaa !17
  br label %8

8:                                                ; preds = %27, %3
  %9 = load i32, ptr %7, align 4, !tbaa !17
  %10 = icmp ult i32 %9, 10
  br i1 %10, label %11, label %30

11:                                               ; preds = %8
  %12 = load ptr, ptr %5, align 8, !tbaa !26
  %13 = load i32, ptr %7, align 4, !tbaa !17
  %14 = zext i32 %13 to i64
  %15 = getelementptr inbounds nuw i32, ptr %12, i64 %14
  %16 = load i32, ptr %15, align 4, !tbaa !17
  %17 = load ptr, ptr %6, align 8, !tbaa !26
  %18 = load i32, ptr %7, align 4, !tbaa !17
  %19 = zext i32 %18 to i64
  %20 = getelementptr inbounds nuw i32, ptr %17, i64 %19
  %21 = load i32, ptr %20, align 4, !tbaa !17
  %22 = sub nsw i32 %16, %21
  %23 = load ptr, ptr %4, align 8, !tbaa !26
  %24 = load i32, ptr %7, align 4, !tbaa !17
  %25 = zext i32 %24 to i64
  %26 = getelementptr inbounds nuw i32, ptr %23, i64 %25
  store i32 %22, ptr %26, align 4, !tbaa !17
  br label %27

27:                                               ; preds = %11
  %28 = load i32, ptr %7, align 4, !tbaa !17
  %29 = add i32 %28, 1
  store i32 %29, ptr %7, align 4, !tbaa !17
  br label %8, !llvm.loop !33

30:                                               ; preds = %8
  call void @llvm.lifetime.end.p0(i64 4, ptr %7) #6
  ret void
}

; Function Attrs: nounwind uwtable
define internal void @fe_add(ptr noundef %0, ptr noundef %1, ptr noundef %2) #0 {
  %4 = alloca ptr, align 8
  %5 = alloca ptr, align 8
  %6 = alloca ptr, align 8
  %7 = alloca i32, align 4
  store ptr %0, ptr %4, align 8, !tbaa !26
  store ptr %1, ptr %5, align 8, !tbaa !26
  store ptr %2, ptr %6, align 8, !tbaa !26
  call void @llvm.lifetime.start.p0(i64 4, ptr %7) #6
  store i32 0, ptr %7, align 4, !tbaa !17
  br label %8

8:                                                ; preds = %27, %3
  %9 = load i32, ptr %7, align 4, !tbaa !17
  %10 = icmp ult i32 %9, 10
  br i1 %10, label %11, label %30

11:                                               ; preds = %8
  %12 = load ptr, ptr %5, align 8, !tbaa !26
  %13 = load i32, ptr %7, align 4, !tbaa !17
  %14 = zext i32 %13 to i64
  %15 = getelementptr inbounds nuw i32, ptr %12, i64 %14
  %16 = load i32, ptr %15, align 4, !tbaa !17
  %17 = load ptr, ptr %6, align 8, !tbaa !26
  %18 = load i32, ptr %7, align 4, !tbaa !17
  %19 = zext i32 %18 to i64
  %20 = getelementptr inbounds nuw i32, ptr %17, i64 %19
  %21 = load i32, ptr %20, align 4, !tbaa !17
  %22 = add nsw i32 %16, %21
  %23 = load ptr, ptr %4, align 8, !tbaa !26
  %24 = load i32, ptr %7, align 4, !tbaa !17
  %25 = zext i32 %24 to i64
  %26 = getelementptr inbounds nuw i32, ptr %23, i64 %25
  store i32 %22, ptr %26, align 4, !tbaa !17
  br label %27

27:                                               ; preds = %11
  %28 = load i32, ptr %7, align 4, !tbaa !17
  %29 = add i32 %28, 1
  store i32 %29, ptr %7, align 4, !tbaa !17
  br label %8, !llvm.loop !32

30:                                               ; preds = %8
  call void @llvm.lifetime.end.p0(i64 4, ptr %7) #6
  ret void
}

; Function Attrs: nounwind uwtable
define void @ossl_x25519_public_from_private(ptr noundef %0, ptr noundef %1) #0 {
  %3 = alloca ptr, align 8
  %4 = alloca ptr, align 8
  %5 = alloca [32 x i8], align 16
  %6 = alloca %struct.ge_p3, align 4
  %7 = alloca [10 x i32], align 16
  %8 = alloca [10 x i32], align 16
  %9 = alloca [10 x i32], align 16
  store ptr %0, ptr %3, align 8, !tbaa !3
  store ptr %1, ptr %4, align 8, !tbaa !3
  call void @llvm.lifetime.start.p0(i64 32, ptr %5) #6
  call void @llvm.lifetime.start.p0(i64 160, ptr %6) #6
  call void @llvm.lifetime.start.p0(i64 40, ptr %7) #6
  call void @llvm.lifetime.start.p0(i64 40, ptr %8) #6
  call void @llvm.lifetime.start.p0(i64 40, ptr %9) #6
  %10 = getelementptr inbounds [32 x i8], ptr %5, i64 0, i64 0
  %11 = load ptr, ptr %4, align 8, !tbaa !3
  call void @llvm.memcpy.p0.p0.i64(ptr align 16 %10, ptr align 1 %11, i64 32, i1 false)
  %12 = getelementptr inbounds [32 x i8], ptr %5, i64 0, i64 0
  %13 = load i8, ptr %12, align 16, !tbaa !10
  %14 = zext i8 %13 to i32
  %15 = and i32 %14, 248
  %16 = trunc i32 %15 to i8
  store i8 %16, ptr %12, align 16, !tbaa !10
  %17 = getelementptr inbounds [32 x i8], ptr %5, i64 0, i64 31
  %18 = load i8, ptr %17, align 1, !tbaa !10
  %19 = zext i8 %18 to i32
  %20 = and i32 %19, 127
  %21 = trunc i32 %20 to i8
  store i8 %21, ptr %17, align 1, !tbaa !10
  %22 = getelementptr inbounds [32 x i8], ptr %5, i64 0, i64 31
  %23 = load i8, ptr %22, align 1, !tbaa !10
  %24 = zext i8 %23 to i32
  %25 = or i32 %24, 64
  %26 = trunc i32 %25 to i8
  store i8 %26, ptr %22, align 1, !tbaa !10
  %27 = getelementptr inbounds [32 x i8], ptr %5, i64 0, i64 0
  call void @ge_scalarmult_base(ptr noundef %6, ptr noundef %27)
  %28 = getelementptr inbounds [10 x i32], ptr %7, i64 0, i64 0
  %29 = getelementptr inbounds nuw %struct.ge_p3, ptr %6, i32 0, i32 2
  %30 = getelementptr inbounds [10 x i32], ptr %29, i64 0, i64 0
  %31 = getelementptr inbounds nuw %struct.ge_p3, ptr %6, i32 0, i32 1
  %32 = getelementptr inbounds [10 x i32], ptr %31, i64 0, i64 0
  call void @fe_add(ptr noundef %28, ptr noundef %30, ptr noundef %32)
  %33 = getelementptr inbounds [10 x i32], ptr %8, i64 0, i64 0
  %34 = getelementptr inbounds nuw %struct.ge_p3, ptr %6, i32 0, i32 2
  %35 = getelementptr inbounds [10 x i32], ptr %34, i64 0, i64 0
  %36 = getelementptr inbounds nuw %struct.ge_p3, ptr %6, i32 0, i32 1
  %37 = getelementptr inbounds [10 x i32], ptr %36, i64 0, i64 0
  call void @fe_sub(ptr noundef %33, ptr noundef %35, ptr noundef %37)
  %38 = getelementptr inbounds [10 x i32], ptr %9, i64 0, i64 0
  %39 = getelementptr inbounds [10 x i32], ptr %8, i64 0, i64 0
  call void @fe_invert(ptr noundef %38, ptr noundef %39)
  %40 = getelementptr inbounds [10 x i32], ptr %7, i64 0, i64 0
  %41 = getelementptr inbounds [10 x i32], ptr %7, i64 0, i64 0
  %42 = getelementptr inbounds [10 x i32], ptr %9, i64 0, i64 0
  call void @fe_mul(ptr noundef %40, ptr noundef %41, ptr noundef %42)
  %43 = load ptr, ptr %3, align 8, !tbaa !3
  %44 = getelementptr inbounds [10 x i32], ptr %7, i64 0, i64 0
  call void @fe_tobytes(ptr noundef %43, ptr noundef %44)
  %45 = getelementptr inbounds [32 x i8], ptr %5, i64 0, i64 0
  call void @OPENSSL_cleanse(ptr noundef %45, i64 noundef 32)
  call void @llvm.lifetime.end.p0(i64 40, ptr %9) #6
  call void @llvm.lifetime.end.p0(i64 40, ptr %8) #6
  call void @llvm.lifetime.end.p0(i64 40, ptr %7) #6
  call void @llvm.lifetime.end.p0(i64 160, ptr %6) #6
  call void @llvm.lifetime.end.p0(i64 32, ptr %5) #6
  ret void
}