; Function Attrs: nounwind uwtable
define void @ossl_x25519_public_from_private(ptr noundef writeonly captures(none) %0, ptr noundef readonly captures(none) %1) local_unnamed_addr #0 {
  %3 = alloca [32 x i8], align 16
  %4 = alloca %struct.ge_p3, align 4
  %5 = alloca [10 x i32], align 16
  %6 = alloca [10 x i32], align 16
  %7 = alloca [10 x i32], align 16
  call void @llvm.lifetime.start.p0(i64 32, ptr nonnull %3) #9
  call void @llvm.lifetime.start.p0(i64 160, ptr nonnull %4) #9
  call void @llvm.lifetime.start.p0(i64 40, ptr nonnull %5) #9
  call void @llvm.lifetime.start.p0(i64 40, ptr nonnull %6) #9
  call void @llvm.lifetime.start.p0(i64 40, ptr nonnull %7) #9
  call void @llvm.memcpy.p0.p0.i64(ptr noundef nonnull align 16 dereferenceable(32) %3, ptr noundef nonnull align 1 dereferenceable(32) %1, i64 32, i1 false)
  %8 = load i8, ptr %3, align 16, !tbaa !3
  %9 = and i8 %8, -8
  store i8 %9, ptr %3, align 16, !tbaa !3
  %10 = getelementptr inbounds nuw i8, ptr %3, i64 31
  %11 = load i8, ptr %10, align 1, !tbaa !3
  %12 = and i8 %11, 63
  %13 = or disjoint i8 %12, 64
  store i8 %13, ptr %10, align 1, !tbaa !3
  call fastcc void @ge_scalarmult_base(ptr noundef %4, ptr noundef %3)
  %14 = getelementptr inbounds nuw i8, ptr %4, i64 80
  %15 = getelementptr inbounds nuw i8, ptr %4, i64 40
  br label %16

16:                                               ; preds = %16, %2
  %indvars.iv.i = phi i64 [ 0, %2 ], [ %indvars.iv.next.i, %16 ]
  %17 = getelementptr inbounds nuw i32, ptr %14, i64 %indvars.iv.i
  %18 = load i32, ptr %17, align 4, !tbaa !9
  %19 = getelementptr inbounds nuw i32, ptr %15, i64 %indvars.iv.i
  %20 = load i32, ptr %19, align 4, !tbaa !9
  %21 = add nsw i32 %20, %18
  %22 = getelementptr inbounds nuw i32, ptr %5, i64 %indvars.iv.i
  store i32 %21, ptr %22, align 4, !tbaa !9
  %indvars.iv.next.i = add nuw nsw i64 %indvars.iv.i, 1
  %exitcond.not.i = icmp eq i64 %indvars.iv.next.i, 10
  br i1 %exitcond.not.i, label %fe_add.exit, label %16, !llvm.loop !14

fe_add.exit:                                      ; preds = %16, %fe_add.exit
  %indvars.iv.i2 = phi i64 [ %indvars.iv.next.i3, %fe_add.exit ], [ 0, %16 ]
  %23 = getelementptr inbounds nuw i32, ptr %14, i64 %indvars.iv.i2
  %24 = load i32, ptr %23, align 4, !tbaa !9
  %25 = getelementptr inbounds nuw i32, ptr %15, i64 %indvars.iv.i2
  %26 = load i32, ptr %25, align 4, !tbaa !9
  %27 = sub nsw i32 %24, %26
  %28 = getelementptr inbounds nuw i32, ptr %6, i64 %indvars.iv.i2
  store i32 %27, ptr %28, align 4, !tbaa !9
  %indvars.iv.next.i3 = add nuw nsw i64 %indvars.iv.i2, 1
  %exitcond.not.i4 = icmp eq i64 %indvars.iv.next.i3, 10
  br i1 %exitcond.not.i4, label %fe_sub.exit, label %fe_add.exit, !llvm.loop !13

fe_sub.exit:                                      ; preds = %fe_add.exit
  call fastcc void @fe_invert(ptr noundef %7, ptr noundef %6)
  call fastcc void @fe_mul(ptr noundef %5, ptr noundef nonnull %5, ptr noundef nonnull %7)
  call fastcc void @fe_tobytes(ptr noundef %0, ptr noundef %5)
  call void @OPENSSL_cleanse(ptr noundef nonnull %3, i64 noundef 32) #9
  call void @llvm.lifetime.end.p0(i64 40, ptr nonnull %7) #9
  call void @llvm.lifetime.end.p0(i64 40, ptr nonnull %6) #9
  call void @llvm.lifetime.end.p0(i64 40, ptr nonnull %5) #9
  call void @llvm.lifetime.end.p0(i64 160, ptr nonnull %4) #9
  call void @llvm.lifetime.end.p0(i64 32, ptr nonnull %3) #9
  ret void
}